target datalayout = "e-m:e-p270:32:32-p271:32:32-p272:64:64-i64:64-i128:128-f80:128-n8:16:32:64-S128"
target triple = "x86_64-unknown-linux-gnu"

%"class.re2::RE2::Options" = type <{ i64, i32, i8, i8, i8, i8, i8, i8, i8, i8, i8, i8, i8, i8 }>
%"class.absl::debian2::string_view" = type { ptr, i64 }
%"class.re2::RE2" = type <{ ptr, %"class.re2::RE2::Options", ptr, ptr, ptr, ptr, i32, i32, %"class.std::__cxx11::basic_string", ptr, ptr, ptr, ptr, %"class.absl::debian2::once_flag", %"class.absl::debian2::once_flag", %"class.absl::debian2::once_flag", [4 x i8] }>
%"class.std::__cxx11::basic_string" = type { %"struct.std::__cxx11::basic_string<char>::_Alloc_hider", i64, %union.anon }
%"struct.std::__cxx11::basic_string<char>::_Alloc_hider" = type { ptr }
%union.anon = type { i64, [8 x i8] }
%"class.absl::debian2::once_flag" = type { %"struct.std::atomic" }
%"struct.std::atomic" = type { %"struct.std::__atomic_base" }
%"struct.std::__atomic_base" = type { i32 }
%class.anon.53 = type { i8 }

; Function Attrs: mustprogress nounwind uwtable
define linkonce_odr void @_ZZN4absl7debian211string_view19CheckLengthInternalEmENKUlvE_clEv(ptr noundef nonnull align 1 dereferenceable(1) %this) #0 comdat align 2 {
entry:
  %this.addr = alloca ptr, align 8
  store ptr %this, ptr %this.addr, align 8
  br label %do.body

do.body:                                          ; preds = %entry
  call void @llvm.trap()
  unreachable

do.end:                                           ; No predecessors!
  ret void
}

; Function Attrs: mustprogress uwtable
define linkonce_odr noundef i64 @_ZN4absl7debian211string_view19CheckLengthInternalEm(i64 noundef %len) #1 comdat align 2 {
entry:
  %len.addr = alloca i64, align 8
  %ref.tmp = alloca %class.anon.53, align 1
  store i64 %len, ptr %len.addr, align 8
  %0 = load i64, ptr %len.addr, align 8
  %cmp = icmp ule i64 %0, 9223372036854775807
  br i1 %cmp, label %cond.true, label %cond.false

cond.true:                                        ; preds = %entry
  br label %cond.end

cond.false:                                       ; preds = %entry
  call void @_ZZN4absl7debian211string_view19CheckLengthInternalEmENKUlvE_clEv(ptr noundef nonnull align 1 dereferenceable(1) %ref.tmp)
  br label %cond.end

cond.end:                                         ; preds = %cond.false, %cond.true
  %1 = load i64, ptr %len.addr, align 8
  ret i64 %1
}

; Function Attrs: noreturn nounwind uwtable
define linkonce_odr hidden void @__clang_call_terminate(ptr noundef %0) #7 comdat {
  %2 = call ptr @__cxa_begin_catch(ptr %0) #16
  call void @_ZSt9terminatev() #19
  unreachable
}

; Function Attrs: mustprogress uwtable
define linkonce_odr void @_ZN4absl7debian211string_viewC2EPKcm(ptr noundef nonnull align 8 dereferenceable(16) %this, ptr noundef %data, i64 noundef %len) unnamed_addr #1 comdat align 2 {
entry:
  %this.addr = alloca ptr, align 8
  %data.addr = alloca ptr, align 8
  %len.addr = alloca i64, align 8
  store ptr %this, ptr %this.addr, align 8
  store ptr %data, ptr %data.addr, align 8
  store i64 %len, ptr %len.addr, align 8
  %this1 = load ptr, ptr %this.addr, align 8
  %ptr_ = getelementptr inbounds %"class.absl::debian2::string_view", ptr %this1, i32 0, i32 0
  %0 = load ptr, ptr %data.addr, align 8
  store ptr %0, ptr %ptr_, align 8
  %length_ = getelementptr inbounds %"class.absl::debian2::string_view", ptr %this1, i32 0, i32 1
  %1 = load i64, ptr %len.addr, align 8
  %call = call noundef i64 @_ZN4absl7debian211string_view19CheckLengthInternalEm(i64 noundef %1)
  store i64 %call, ptr %length_, align 8
  ret void
}

; Function Attrs: mustprogress nounwind uwtable
define linkonce_odr noundef zeroext i1 @_ZN4absl7debian213ascii_isdigitEh(i8 noundef zeroext %c) #0 comdat {
entry:
  %c.addr = alloca i8, align 1
  store i8 %c, ptr %c.addr, align 1
  %0 = load i8, ptr %c.addr, align 1
  %conv = zext i8 %0 to i32
  %cmp = icmp sge i32 %conv, 48
  br i1 %cmp, label %land.rhs, label %land.end

land.rhs:                                         ; preds = %entry
  %1 = load i8, ptr %c.addr, align 1
  %conv1 = zext i8 %1 to i32
  %cmp2 = icmp sle i32 %conv1, 57
  br label %land.end

land.end:                                         ; preds = %land.rhs, %entry
  %2 = phi i1 [ false, %entry ], [ %cmp2, %land.rhs ]
  ret i1 %2
}

; Function Attrs: mustprogress nounwind uwtable
define linkonce_odr noundef i64 @_ZNK4absl7debian211string_view4sizeEv(ptr noundef nonnull align 8 dereferenceable(16) %this) #0 comdat align 2 {
entry:
  %this.addr = alloca ptr, align 8
  store ptr %this, ptr %this.addr, align 8
  %this1 = load ptr, ptr %this.addr, align 8
  %length_ = getelementptr inbounds %"class.absl::debian2::string_view", ptr %this1, i32 0, i32 1
  %0 = load i64, ptr %length_, align 8
  ret i64 %0
}

; Function Attrs: mustprogress nounwind uwtable
define linkonce_odr noundef ptr @_ZNK4absl7debian211string_view4dataEv(ptr noundef nonnull align 8 dereferenceable(16) %this) #0 comdat align 2 {
entry:
  %this.addr = alloca ptr, align 8
  store ptr %this, ptr %this.addr, align 8
  %this1 = load ptr, ptr %this.addr, align 8
  %ptr_ = getelementptr inbounds %"class.absl::debian2::string_view", ptr %this1, i32 0, i32 0
  %0 = load ptr, ptr %ptr_, align 8
  ret ptr %0
}

; Function Attrs: mustprogress nounwind uwtable
define linkonce_odr void @_ZN4absl7debian211string_viewC2ISaIcEEERKNSt7__cxx1112basic_stringIcSt11char_traitsIcET_EE(ptr noundef nonnull align 8 dereferenceable(16) %this, ptr noundef nonnull align 8 dereferenceable(32) %str) unnamed_addr #0 comdat align 2 personality ptr @__gxx_personality_v0 {
entry:
  %this.addr = alloca ptr, align 8
  %str.addr = alloca ptr, align 8
  store ptr %this, ptr %this.addr, align 8
  store ptr %str, ptr %str.addr, align 8
  %this1 = load ptr, ptr %this.addr, align 8
  %0 = load ptr, ptr %str.addr, align 8
  %call = call noundef ptr @_ZNKSt7__cxx1112basic_stringIcSt11char_traitsIcESaIcEE4dataEv(ptr noundef nonnull align 8 dereferenceable(32) %0) #16
  %1 = load ptr, ptr %str.addr, align 8
  %call2 = call noundef i64 @_ZNKSt7__cxx1112basic_stringIcSt11char_traitsIcESaIcEE4sizeEv(ptr noundef nonnull align 8 dereferenceable(32) %1) #16
  invoke void @_ZN4absl7debian211string_viewC2EPKcm(ptr noundef nonnull align 8 dereferenceable(16) %this1, ptr noundef %call, i64 noundef %call2)
          to label %invoke.cont unwind label %terminate.lpad

invoke.cont:                                      ; preds = %entry
  ret void

terminate.lpad:                                   ; preds = %entry
  %2 = landingpad { ptr, i32 }
          catch ptr null
  %3 = extractvalue { ptr, i32 } %2, 0
  call void @__clang_call_terminate(ptr %3) #19
  unreachable
}

; Function Attrs: mustprogress nounwind uwtable
define linkonce_odr noundef i32 @_ZNK3re23RE223NumberOfCapturingGroupsEv(ptr noundef nonnull align 8 dereferenceable(148) %this) #0 comdat align 2 {
entry:
  %this.addr = alloca ptr, align 8
  store ptr %this, ptr %this.addr, align 8
  %this1 = load ptr, ptr %this.addr, align 8
  %num_captures_ = getelementptr inbounds %"class.re2::RE2", ptr %this1, i32 0, i32 6
  %0 = load i32, ptr %num_captures_, align 8
  ret i32 %0
}

; Function Attrs: mustprogress uwtable
define noundef i32 @_ZN3re23RE211MaxSubmatchEN4absl7debian211string_viewE(ptr %rewrite.coerce0, i64 %rewrite.coerce1) #1 align 2 {
entry:
  %rewrite = alloca %"class.absl::debian2::string_view", align 8
  %max = alloca i32, align 4
  %s = alloca ptr, align 8
  %end = alloca ptr, align 8
  %c = alloca i32, align 4
  %n = alloca i32, align 4
  %0 = getelementptr inbounds { ptr, i64 }, ptr %rewrite, i32 0, i32 0
  store ptr %rewrite.coerce0, ptr %0, align 8
  %1 = getelementptr inbounds { ptr, i64 }, ptr %rewrite, i32 0, i32 1
  store i64 %rewrite.coerce1, ptr %1, align 8
  store i32 0, ptr %max, align 4
  %call = call noundef ptr @_ZNK4absl7debian211string_view4dataEv(ptr noundef nonnull align 8 dereferenceable(16) %rewrite) #16
  store ptr %call, ptr %s, align 8
  %2 = load ptr, ptr %s, align 8
  %call1 = call noundef i64 @_ZNK4absl7debian211string_view4sizeEv(ptr noundef nonnull align 8 dereferenceable(16) %rewrite) #16
  %add.ptr = getelementptr inbounds i8, ptr %2, i64 %call1
  store ptr %add.ptr, ptr %end, align 8
  br label %for.cond

for.cond:                                         ; preds = %for.inc, %entry
  %3 = load ptr, ptr %s, align 8
  %4 = load ptr, ptr %end, align 8
  %cmp = icmp ult ptr %3, %4
  br i1 %cmp, label %for.body, label %for.end

for.body:                                         ; preds = %for.cond
  %5 = load ptr, ptr %s, align 8
  %6 = load i8, ptr %5, align 1
  %conv = sext i8 %6 to i32
  %cmp2 = icmp eq i32 %conv, 92
  br i1 %cmp2, label %if.then, label %if.end11

if.then:                                          ; preds = %for.body
  %7 = load ptr, ptr %s, align 8
  %incdec.ptr = getelementptr inbounds i8, ptr %7, i32 1
  store ptr %incdec.ptr, ptr %s, align 8
  %8 = load ptr, ptr %s, align 8
  %9 = load ptr, ptr %end, align 8
  %cmp3 = icmp ult ptr %8, %9
  br i1 %cmp3, label %cond.true, label %cond.false

cond.true:                                        ; preds = %if.then
  %10 = load ptr, ptr %s, align 8
  %11 = load i8, ptr %10, align 1
  %conv4 = sext i8 %11 to i32
  br label %cond.end

cond.false:                                       ; preds = %if.then
  br label %cond.end

cond.end:                                         ; preds = %cond.false, %cond.true
  %cond = phi i32 [ %conv4, %cond.true ], [ -1, %cond.false ]
  store i32 %cond, ptr %c, align 4
  %12 = load i32, ptr %c, align 4
  %conv5 = trunc i32 %12 to i8
  %call6 = call noundef zeroext i1 @_ZN4absl7debian213ascii_isdigitEh(i8 noundef zeroext %conv5)
  br i1 %call6, label %if.then7, label %if.end10

if.then7:                                         ; preds = %cond.end
  %13 = load i32, ptr %c, align 4
  %sub = sub nsw i32 %13, 48
  store i32 %sub, ptr %n, align 4
  %14 = load i32, ptr %n, align 4
  %15 = load i32, ptr %max, align 4
  %cmp8 = icmp sgt i32 %14, %15
  br i1 %cmp8, label %if.then9, label %if.end

if.then9:                                         ; preds = %if.then7
  %16 = load i32, ptr %n, align 4
  store i32 %16, ptr %max, align 4
  br label %if.end

if.end:                                           ; preds = %if.then9, %if.then7
  br label %if.end10

if.end10:                                         ; preds = %if.end, %cond.end
  br label %if.end11

if.end11:                                         ; preds = %if.end10, %for.body
  br label %for.inc

for.inc:                                          ; preds = %if.end11
  %17 = load ptr, ptr %s, align 8
  %incdec.ptr12 = getelementptr inbounds i8, ptr %17, i32 1
  store ptr %incdec.ptr12, ptr %s, align 8
  br label %for.cond, !llvm.loop !7

for.end:                                          ; preds = %for.cond
  %18 = load i32, ptr %max, align 4
  ret i32 %18
}

; Function Attrs: mustprogress nounwind uwtable
define linkonce_odr void @_ZN4absl7debian211string_viewC2Ev(ptr noundef nonnull align 8 dereferenceable(16) %this) unnamed_addr #0 comdat align 2 {
entry:
  %this.addr = alloca ptr, align 8
  store ptr %this, ptr %this.addr, align 8
  %this1 = load ptr, ptr %this.addr, align 8
  %ptr_ = getelementptr inbounds %"class.absl::debian2::string_view", ptr %this1, i32 0, i32 0
  store ptr null, ptr %ptr_, align 8
  %length_ = getelementptr inbounds %"class.absl::debian2::string_view", ptr %this1, i32 0, i32 1
  store i64 0, ptr %length_, align 8
  ret void
}

; Function Attrs: mustprogress uwtable
define noundef zeroext i1 @_ZN3re23RE27ReplaceEPNSt7__cxx1112basic_stringIcSt11char_traitsIcESaIcEEERKS0_N4absl7debian211string_viewE(ptr noundef %str, ptr noundef nonnull align 8 dereferenceable(148) %re, ptr %rewrite.coerce0, i64 %rewrite.coerce1) #1 align 2 personality ptr @__gxx_personality_v0 {
entry:
  %retval = alloca i1, align 1
  %rewrite = alloca %"class.absl::debian2::string_view", align 8
  %str.addr = alloca ptr, align 8
  %re.addr = alloca ptr, align 8
  %vec = alloca [17 x %"class.absl::debian2::string_view"], align 16
  %nvec = alloca i32, align 4
  %agg.tmp = alloca %"class.absl::debian2::string_view", align 8
  %agg.tmp6 = alloca %"class.absl::debian2::string_view", align 8
  %s = alloca %"class.std::__cxx11::basic_string", align 8
  %agg.tmp11 = alloca %"class.absl::debian2::string_view", align 8
  %exn.slot = alloca ptr, align 8
  %ehselector.slot = alloca i32, align 4
  %cleanup.dest.slot = alloca i32, align 4
  %0 = getelementptr inbounds { ptr, i64 }, ptr %rewrite, i32 0, i32 0
  store ptr %rewrite.coerce0, ptr %0, align 8
  %1 = getelementptr inbounds { ptr, i64 }, ptr %rewrite, i32 0, i32 1
  store i64 %rewrite.coerce1, ptr %1, align 8
  store ptr %str, ptr %str.addr, align 8
  store ptr %re, ptr %re.addr, align 8
  %array.begin = getelementptr inbounds [17 x %"class.absl::debian2::string_view"], ptr %vec, i32 0, i32 0
  %arrayctor.end = getelementptr inbounds %"class.absl::debian2::string_view", ptr %array.begin, i64 17
  br label %arrayctor.loop

arrayctor.loop:                                   ; preds = %arrayctor.loop, %entry
  %arrayctor.cur = phi ptr [ %array.begin, %entry ], [ %arrayctor.next, %arrayctor.loop ]
  call void @_ZN4absl7debian211string_viewC2Ev(ptr noundef nonnull align 8 dereferenceable(16) %arrayctor.cur) #16
  %arrayctor.next = getelementptr inbounds %"class.absl::debian2::string_view", ptr %arrayctor.cur, i64 1
  %arrayctor.done = icmp eq ptr %arrayctor.next, %arrayctor.end
  br i1 %arrayctor.done, label %arrayctor.cont, label %arrayctor.loop

arrayctor.cont:                                   ; preds = %arrayctor.loop
  call void @llvm.memcpy.p0.p0.i64(ptr align 8 %agg.tmp, ptr align 8 %rewrite, i64 16, i1 false)
  %2 = getelementptr inbounds { ptr, i64 }, ptr %agg.tmp, i32 0, i32 0
  %3 = load ptr, ptr %2, align 8
  %4 = getelementptr inbounds { ptr, i64 }, ptr %agg.tmp, i32 0, i32 1
  %5 = load i64, ptr %4, align 8
  %call = call noundef i32 @_ZN3re23RE211MaxSubmatchEN4absl7debian211string_viewE(ptr %3, i64 %5)
  %add = add nsw i32 1, %call
  store i32 %add, ptr %nvec, align 4
  %6 = load i32, ptr %nvec, align 4
  %7 = load ptr, ptr %re.addr, align 8
  %call1 = call noundef i32 @_ZNK3re23RE223NumberOfCapturingGroupsEv(ptr noundef nonnull align 8 dereferenceable(148) %7)
  %add2 = add nsw i32 1, %call1
  %cmp = icmp sgt i32 %6, %add2
  br i1 %cmp, label %if.then, label %if.end

if.then:                                          ; preds = %arrayctor.cont
  store i1 false, ptr %retval, align 1
  br label %return

if.end:                                           ; preds = %arrayctor.cont
  %8 = load i32, ptr %nvec, align 4
  %cmp3 = icmp sgt i32 %8, 17
  br i1 %cmp3, label %if.then4, label %if.end5

if.then4:                                         ; preds = %if.end
  store i1 false, ptr %retval, align 1
  br label %return

if.end5:                                          ; preds = %if.end
  %9 = load ptr, ptr %re.addr, align 8
  %10 = load ptr, ptr %str.addr, align 8
  call void @_ZN4absl7debian211string_viewC2ISaIcEEERKNSt7__cxx1112basic_stringIcSt11char_traitsIcET_EE(ptr noundef nonnull align 8 dereferenceable(16) %agg.tmp6, ptr noundef nonnull align 8 dereferenceable(32) %10) #16
  %11 = load ptr, ptr %str.addr, align 8
  %call7 = call noundef i64 @_ZNKSt7__cxx1112basic_stringIcSt11char_traitsIcESaIcEE4sizeEv(ptr noundef nonnull align 8 dereferenceable(32) %11) #16
  %arraydecay = getelementptr inbounds [17 x %"class.absl::debian2::string_view"], ptr %vec, i64 0, i64 0
  %12 = load i32, ptr %nvec, align 4
  %13 = getelementptr inbounds { ptr, i64 }, ptr %agg.tmp6, i32 0, i32 0
  %14 = load ptr, ptr %13, align 8
  %15 = getelementptr inbounds { ptr, i64 }, ptr %agg.tmp6, i32 0, i32 1
  %16 = load i64, ptr %15, align 8
  %call8 = call noundef zeroext i1 @_ZNK3re23RE25MatchEN4absl7debian211string_viewEmmNS0_6AnchorEPS3_i(ptr noundef nonnull align 8 dereferenceable(148) %9, ptr %14, i64 %16, i64 noundef 0, i64 noundef %call7, i32 noundef 0, ptr noundef %arraydecay, i32 noundef %12)
  br i1 %call8, label %if.end10, label %if.then9

if.then9:                                         ; preds = %if.end5
  store i1 false, ptr %retval, align 1
  br label %return

if.end10:                                         ; preds = %if.end5
  call void @_ZNSt7__cxx1112basic_stringIcSt11char_traitsIcESaIcEEC1Ev(ptr noundef nonnull align 8 dereferenceable(32) %s) #16
  %17 = load ptr, ptr %re.addr, align 8
  call void @llvm.memcpy.p0.p0.i64(ptr align 8 %agg.tmp11, ptr align 8 %rewrite, i64 16, i1 false)
  %arraydecay12 = getelementptr inbounds [17 x %"class.absl::debian2::string_view"], ptr %vec, i64 0, i64 0
  %18 = load i32, ptr %nvec, align 4
  %19 = getelementptr inbounds { ptr, i64 }, ptr %agg.tmp11, i32 0, i32 0
  %20 = load ptr, ptr %19, align 8
  %21 = getelementptr inbounds { ptr, i64 }, ptr %agg.tmp11, i32 0, i32 1
  %22 = load i64, ptr %21, align 8
  %call13 = invoke noundef zeroext i1 @_ZNK3re23RE27RewriteEPNSt7__cxx1112basic_stringIcSt11char_traitsIcESaIcEEEN4absl7debian211string_viewEPKSA_i(ptr noundef nonnull align 8 dereferenceable(148) %17, ptr noundef %s, ptr %20, i64 %22, ptr noundef %arraydecay12, i32 noundef %18)
          to label %invoke.cont unwind label %lpad

invoke.cont:                                      ; preds = %if.end10
  br i1 %call13, label %if.end15, label %if.then14

if.then14:                                        ; preds = %invoke.cont
  store i1 false, ptr %retval, align 1
  store i32 1, ptr %cleanup.dest.slot, align 4
  br label %cleanup

lpad:                                             ; preds = %if.end15, %if.end10
  %23 = landingpad { ptr, i32 }
          cleanup
  %24 = extractvalue { ptr, i32 } %23, 0
  store ptr %24, ptr %exn.slot, align 8
  %25 = extractvalue { ptr, i32 } %23, 1
  store i32 %25, ptr %ehselector.slot, align 4
  call void @_ZNSt7__cxx1112basic_stringIcSt11char_traitsIcESaIcEED1Ev(ptr noundef nonnull align 8 dereferenceable(32) %s) #16
  br label %eh.resume

if.end15:                                         ; preds = %invoke.cont
  %26 = load ptr, ptr %str.addr, align 8
  %arrayidx = getelementptr inbounds [17 x %"class.absl::debian2::string_view"], ptr %vec, i64 0, i64 0
  %call16 = call noundef ptr @_ZNK4absl7debian211string_view4dataEv(ptr noundef nonnull align 8 dereferenceable(16) %arrayidx) #16
  %27 = load ptr, ptr %str.addr, align 8
  %call17 = call noundef ptr @_ZNSt7__cxx1112basic_stringIcSt11char_traitsIcESaIcEE4dataEv(ptr noundef nonnull align 8 dereferenceable(32) %27) #16
  %sub.ptr.lhs.cast = ptrtoint ptr %call16 to i64
  %sub.ptr.rhs.cast = ptrtoint ptr %call17 to i64
  %sub.ptr.sub = sub i64 %sub.ptr.lhs.cast, %sub.ptr.rhs.cast
  %arrayidx18 = getelementptr inbounds [17 x %"class.absl::debian2::string_view"], ptr %vec, i64 0, i64 0
  %call19 = call noundef i64 @_ZNK4absl7debian211string_view4sizeEv(ptr noundef nonnull align 8 dereferenceable(16) %arrayidx18) #16
  %call21 = invoke noundef nonnull align 8 dereferenceable(32) ptr @_ZNSt7__cxx1112basic_stringIcSt11char_traitsIcESaIcEE7replaceEmmRKS4_(ptr noundef nonnull align 8 dereferenceable(32) %26, i64 noundef %sub.ptr.sub, i64 noundef %call19, ptr noundef nonnull align 8 dereferenceable(32) %s)
          to label %invoke.cont20 unwind label %lpad

invoke.cont20:                                    ; preds = %if.end15
  store i1 true, ptr %retval, align 1
  store i32 1, ptr %cleanup.dest.slot, align 4
  br label %cleanup

cleanup:                                          ; preds = %invoke.cont20, %if.then14
  call void @_ZNSt7__cxx1112basic_stringIcSt11char_traitsIcESaIcEED1Ev(ptr noundef nonnull align 8 dereferenceable(32) %s) #16
  br label %return

return:                                           ; preds = %cleanup, %if.then9, %if.then4, %if.then
  %28 = load i1, ptr %retval, align 1
  ret i1 %28

eh.resume:                                        ; preds = %lpad
  %exn = load ptr, ptr %exn.slot, align 8
  %sel = load i32, ptr %ehselector.slot, align 4
  %lpad.val = insertvalue { ptr, i32 } poison, ptr %exn, 0
  %lpad.val22 = insertvalue { ptr, i32 } %lpad.val, i32 %sel, 1
  resume { ptr, i32 } %lpad.val22
}