; Function Attrs: mustprogress uwtable
define noundef zeroext i1 @_ZN3re23RE27ReplaceEPNSt7__cxx1112basic_stringIcSt11char_traitsIcESaIcEEERKS0_N4absl7debian211string_viewE(ptr noundef %str, ptr noundef nonnull align 8 dereferenceable(148) %re, ptr %rewrite.coerce0, i64 %rewrite.coerce1) local_unnamed_addr #2 align 2 personality ptr @__gxx_personality_v0 {
entry:
  %vec = alloca [17 x %"class.absl::debian2::string_view"], align 16
  %s = alloca %"class.std::__cxx11::basic_string", align 8
  call void @llvm.memset.p0.i64(ptr noundef nonnull align 16 dereferenceable(272) %vec, i8 0, i64 272, i1 false)
  %add.ptr.i = getelementptr inbounds i8, ptr %rewrite.coerce0, i64 %rewrite.coerce1
  %cmp13.i = icmp sgt i64 %rewrite.coerce1, 0
  br i1 %cmp13.i, label %for.body.i, label %_ZN3re23RE211MaxSubmatchEN4absl7debian211string_viewE.exit

for.body.i:                                       ; preds = %entry, %for.inc.i
  %max.015.i = phi i32 [ %max.1.i, %for.inc.i ], [ 0, %entry ]
  %s.014.i = phi ptr [ %incdec.ptr12.i, %for.inc.i ], [ %rewrite.coerce0, %entry ]
  %0 = load i8, ptr %s.014.i, align 1
  %cmp2.i = icmp eq i8 %0, 92
  br i1 %cmp2.i, label %if.then.i, label %for.inc.i

if.then.i:                                        ; preds = %for.body.i
  %incdec.ptr.i = getelementptr inbounds nuw i8, ptr %s.014.i, i64 1
  %cmp3.i = icmp ult ptr %incdec.ptr.i, %add.ptr.i
  br i1 %cmp3.i, label %cond.end.i, label %for.inc.i

cond.end.i:                                       ; preds = %if.then.i
  %1 = load i8, ptr %incdec.ptr.i, align 1
  %2 = add i8 %1, -48
  %3 = icmp ult i8 %2, 10
  br i1 %3, label %if.then7.i, label %for.inc.i

if.then7.i:                                       ; preds = %cond.end.i
  %sub.i = zext nneg i8 %2 to i32
  %spec.select.i = tail call i32 @llvm.smax.i32(i32 %max.015.i, i32 %sub.i)
  br label %for.inc.i

for.inc.i:                                        ; preds = %if.then7.i, %cond.end.i, %if.then.i, %for.body.i
  %s.1.i = phi ptr [ %incdec.ptr.i, %cond.end.i ], [ %s.014.i, %for.body.i ], [ %incdec.ptr.i, %if.then7.i ], [ %incdec.ptr.i, %if.then.i ]
  %max.1.i = phi i32 [ %max.015.i, %cond.end.i ], [ %max.015.i, %for.body.i ], [ %spec.select.i, %if.then7.i ], [ %max.015.i, %if.then.i ]
  %incdec.ptr12.i = getelementptr inbounds nuw i8, ptr %s.1.i, i64 1
  %cmp.i = icmp ult ptr %incdec.ptr12.i, %add.ptr.i
  br i1 %cmp.i, label %for.body.i, label %_ZN3re23RE211MaxSubmatchEN4absl7debian211string_viewE.exit, !llvm.loop !19

_ZN3re23RE211MaxSubmatchEN4absl7debian211string_viewE.exit: ; preds = %for.inc.i, %entry
  %max.0.lcssa.i = phi i32 [ 0, %entry ], [ %max.1.i, %for.inc.i ]
  %add = add nuw nsw i32 %max.0.lcssa.i, 1
  %num_captures_.i = getelementptr inbounds nuw i8, ptr %re, i64 64
  %4 = load i32, ptr %num_captures_.i, align 8
  %cmp = icmp sgt i32 %max.0.lcssa.i, %4
  %cmp3 = icmp samesign ugt i32 %max.0.lcssa.i, 16
  %or.cond = select i1 %cmp, i1 true, i1 %cmp3
  br i1 %or.cond, label %return, label %if.end5

if.end5:                                          ; preds = %_ZN3re23RE211MaxSubmatchEN4absl7debian211string_viewE.exit
  %call.i = tail call noundef ptr @_ZNKSt7__cxx1112basic_stringIcSt11char_traitsIcESaIcEE4dataEv(ptr noundef nonnull align 8 dereferenceable(32) %str) #30
  %call2.i = tail call noundef i64 @_ZNKSt7__cxx1112basic_stringIcSt11char_traitsIcESaIcEE4sizeEv(ptr noundef nonnull align 8 dereferenceable(32) %str) #30
  %cmp.i.i.i = icmp sgt i64 %call2.i, -1
  br i1 %cmp.i.i.i, label %_ZN4absl7debian211string_viewC2ISaIcEEERKNSt7__cxx1112basic_stringIcSt11char_traitsIcET_EE.exit, label %cond.false.i.i.i

cond.false.i.i.i:                                 ; preds = %if.end5
  tail call void @llvm.trap()
  unreachable

_ZN4absl7debian211string_viewC2ISaIcEEERKNSt7__cxx1112basic_stringIcSt11char_traitsIcET_EE.exit: ; preds = %if.end5
  %call7 = tail call noundef i64 @_ZNKSt7__cxx1112basic_stringIcSt11char_traitsIcESaIcEE4sizeEv(ptr noundef nonnull align 8 dereferenceable(32) %str) #30
  %call8 = call noundef zeroext i1 @_ZNK3re23RE25MatchEN4absl7debian211string_viewEmmNS0_6AnchorEPS3_i(ptr noundef nonnull align 8 dereferenceable(148) %re, ptr %call.i, i64 %call2.i, i64 noundef 0, i64 noundef %call7, i32 noundef 0, ptr noundef nonnull %vec, i32 noundef %add)
  br i1 %call8, label %if.end10, label %return

if.end10:                                         ; preds = %_ZN4absl7debian211string_viewC2ISaIcEEERKNSt7__cxx1112basic_stringIcSt11char_traitsIcET_EE.exit
  call void @_ZNSt7__cxx1112basic_stringIcSt11char_traitsIcESaIcEEC1Ev(ptr noundef nonnull align 8 dereferenceable(32) %s) #30
  %call13 = invoke noundef zeroext i1 @_ZNK3re23RE27RewriteEPNSt7__cxx1112basic_stringIcSt11char_traitsIcESaIcEEEN4absl7debian211string_viewEPKSA_i(ptr noundef nonnull align 8 dereferenceable(148) %re, ptr noundef nonnull %s, ptr %rewrite.coerce0, i64 %rewrite.coerce1, ptr noundef nonnull %vec, i32 noundef %add)
          to label %invoke.cont unwind label %lpad

invoke.cont:                                      ; preds = %if.end10
  br i1 %call13, label %if.end15, label %cleanup

lpad:                                             ; preds = %if.end15, %if.end10
  %5 = landingpad { ptr, i32 }
          cleanup
  call void @_ZNSt7__cxx1112basic_stringIcSt11char_traitsIcESaIcEED1Ev(ptr noundef nonnull align 8 dereferenceable(32) %s) #30
  resume { ptr, i32 } %5

if.end15:                                         ; preds = %invoke.cont
  %6 = load ptr, ptr %vec, align 16
  %call17 = call noundef ptr @_ZNSt7__cxx1112basic_stringIcSt11char_traitsIcESaIcEE4dataEv(ptr noundef nonnull align 8 dereferenceable(32) %str) #30
  %sub.ptr.lhs.cast = ptrtoint ptr %6 to i64
  %sub.ptr.rhs.cast = ptrtoint ptr %call17 to i64
  %sub.ptr.sub = sub i64 %sub.ptr.lhs.cast, %sub.ptr.rhs.cast
  %length_.i = getelementptr inbounds nuw i8, ptr %vec, i64 8
  %7 = load i64, ptr %length_.i, align 8
  %call21 = invoke noundef nonnull align 8 dereferenceable(32) ptr @_ZNSt7__cxx1112basic_stringIcSt11char_traitsIcESaIcEE7replaceEmmRKS4_(ptr noundef nonnull align 8 dereferenceable(32) %str, i64 noundef %sub.ptr.sub, i64 noundef %7, ptr noundef nonnull align 8 dereferenceable(32) %s)
          to label %cleanup unwind label %lpad

cleanup:                                          ; preds = %if.end15, %invoke.cont
  call void @_ZNSt7__cxx1112basic_stringIcSt11char_traitsIcESaIcEED1Ev(ptr noundef nonnull align 8 dereferenceable(32) %s) #30
  br label %return

return:                                           ; preds = %_ZN4absl7debian211string_viewC2ISaIcEEERKNSt7__cxx1112basic_stringIcSt11char_traitsIcET_EE.exit, %_ZN3re23RE211MaxSubmatchEN4absl7debian211string_viewE.exit, %cleanup
  %retval.0 = phi i1 [ %call13, %cleanup ], [ false, %_ZN3re23RE211MaxSubmatchEN4absl7debian211string_viewE.exit ], [ false, %_ZN4absl7debian211string_viewC2ISaIcEEERKNSt7__cxx1112basic_stringIcSt11char_traitsIcET_EE.exit ]
  ret i1 %retval.0
}